target datalayout = "e-m:e-p270:32:32-p271:32:32-p272:64:64-i64:64-i128:128-f80:128-n8:16:32:64-S128"
target triple = "x86_64-pc-linux-gnu"

; Function Attrs: nounwind uwtable
define internal i32 @f(double noundef %0, ptr noundef %1, ptr noundef %2, ptr noundef %3) #0 {
  %5 = alloca double, align 8
  %6 = alloca ptr, align 8
  %7 = alloca ptr, align 8
  %8 = alloca ptr, align 8
  %9 = alloca ptr, align 8
  %10 = alloca double, align 8
  %11 = alloca double, align 8
  store double %0, ptr %5, align 8, !tbaa !4
  store ptr %1, ptr %6, align 8, !tbaa !10
  store ptr %2, ptr %7, align 8, !tbaa !10
  store ptr %3, ptr %8, align 8, !tbaa !13
  call void @llvm.lifetime.start.p0(i64 8, ptr %9) #5
  %12 = load ptr, ptr %8, align 8, !tbaa !13
  store ptr %12, ptr %9, align 8, !tbaa !24
  call void @llvm.lifetime.start.p0(i64 8, ptr %10) #5
  %13 = load ptr, ptr %9, align 8, !tbaa !24
  %14 = getelementptr inbounds double, ptr %13, i64 0
  %15 = load double, ptr %14, align 8, !tbaa !4
  store double %15, ptr %10, align 8, !tbaa !4
  call void @llvm.lifetime.start.p0(i64 8, ptr %11) #5
  %16 = load ptr, ptr %6, align 8, !tbaa !10
  %17 = call ptr @N_VGetArrayPointer(ptr noundef %16)
  %18 = getelementptr inbounds double, ptr %17, i64 0
  %19 = load double, ptr %18, align 8, !tbaa !4
  store double %19, ptr %11, align 8, !tbaa !4
  %20 = load double, ptr %10, align 8, !tbaa !4
  %21 = load double, ptr %11, align 8, !tbaa !4
  %22 = load double, ptr %5, align 8, !tbaa !4
  %23 = load double, ptr %5, align 8, !tbaa !4
  %24 = call double @llvm.fmuladd.f64(double %22, double %23, double 1.000000e+00)
  %25 = fdiv double 1.000000e+00, %24
  %26 = call double @llvm.fmuladd.f64(double %20, double %21, double %25)
  %27 = load double, ptr %10, align 8, !tbaa !4
  %28 = load double, ptr %5, align 8, !tbaa !4
  %29 = call double @atan(double noundef %28) #5, !tbaa !14
  %30 = fneg double %27
  %31 = call double @llvm.fmuladd.f64(double %30, double %29, double %26)
  %32 = load ptr, ptr %7, align 8, !tbaa !10
  %33 = call ptr @N_VGetArrayPointer(ptr noundef %32)
  %34 = getelementptr inbounds double, ptr %33, i64 0
  store double %31, ptr %34, align 8, !tbaa !4
  call void @llvm.lifetime.end.p0(i64 8, ptr %11) #5
  call void @llvm.lifetime.end.p0(i64 8, ptr %10) #5
  call void @llvm.lifetime.end.p0(i64 8, ptr %9) #5
  ret i32 0
}